; Function Attrs: mustprogress nounwind uwtable
define dso_local noundef i32 @_Z35cmCTestResourceGroups_yylex_destroyPv(ptr noundef captures(none) %0) local_unnamed_addr #5 {
  %2 = getelementptr inbounds nuw i8, ptr %0, i64 24
  %3 = getelementptr inbounds nuw i8, ptr %0, i64 40
  %4 = load ptr, ptr %3, align 8, !tbaa !20
  %.not25 = icmp eq ptr %4, null
  br i1 %.not25, label %.critedge, label %.lr.ph.preheader

.lr.ph.preheader:                                 ; preds = %1
  %.pre = load i64, ptr %2, align 8, !tbaa !21
  %.phi.trans.insert = getelementptr inbounds nuw ptr, ptr %4, i64 %.pre
  %.pre30 = load ptr, ptr %.phi.trans.insert, align 8, !tbaa !22
  %5 = icmp eq ptr %.pre30, null
  br i1 %5, label %.critedge, label %.thread.i

.thread.i:                                        ; preds = %.lr.ph.preheader
  %6 = getelementptr inbounds nuw ptr, ptr %4, i64 %.pre
  store ptr null, ptr %6, align 8, !tbaa !22
  %7 = getelementptr inbounds nuw i8, ptr %.pre30, i64 32
  %8 = load i32, ptr %7, align 8, !tbaa !28
  %.not15.i = icmp eq i32 %8, 0
  br i1 %.not15.i, label %_Z40cmCTestResourceGroups_yypop_buffer_statePv.exit, label %9

9:                                                ; preds = %.thread.i
  %10 = getelementptr inbounds nuw i8, ptr %.pre30, i64 8
  %11 = load ptr, ptr %10, align 8, !tbaa !27
  tail call void @free(ptr noundef %11) #36
  br label %_Z40cmCTestResourceGroups_yypop_buffer_statePv.exit

_Z40cmCTestResourceGroups_yypop_buffer_statePv.exit: ; preds = %.thread.i, %9
  tail call void @free(ptr noundef nonnull %.pre30) #36
  %12 = load ptr, ptr %3, align 8, !tbaa !20
  %13 = load i64, ptr %2, align 8, !tbaa !21
  %14 = getelementptr inbounds nuw ptr, ptr %12, i64 %13
  store ptr null, ptr %14, align 8, !tbaa !22
  br label %.critedge

.critedge:                                        ; preds = %.lr.ph.preheader, %_Z40cmCTestResourceGroups_yypop_buffer_statePv.exit, %1
  %.lcssa = phi ptr [ null, %1 ], [ %12, %_Z40cmCTestResourceGroups_yypop_buffer_statePv.exit ], [ %4, %.lr.ph.preheader ]
  tail call void @free(ptr noundef %.lcssa) #36
  store ptr null, ptr %3, align 8, !tbaa !20
  %15 = getelementptr inbounds nuw i8, ptr %0, i64 96
  %16 = load ptr, ptr %15, align 8, !tbaa !71
  tail call void @free(ptr noundef %16) #36
  tail call void @free(ptr noundef nonnull %0) #36
  ret i32 0
}